target datalayout = "e-m:e-p270:32:32-p271:32:32-p272:64:64-i64:64-i128:128-f80:128-n8:16:32:64-S128"
target triple = "x86_64-pc-linux-gnu"

%struct.H5O_shared_t = type { i32, ptr, i32, %union.anon }
%union.anon = type { %struct.H5O_mesg_loc_t }
%struct.H5O_mesg_loc_t = type { i32, i64 }
%struct.H5T_t = type { %struct.H5O_shared_t, ptr, %struct.H5O_loc_t, %struct.H5G_name_t, ptr }
%struct.H5O_loc_t = type { ptr, i64, i8 }
%struct.H5G_name_t = type { ptr, ptr, i32 }
%struct.H5T_shared_t = type { i64, i32, i32, i64, i32, i8, ptr, ptr, %union.anon.0 }
%union.anon.0 = type { %struct.H5T_array_t }
%struct.H5T_array_t = type { i64, i32, [32 x i64] }
%struct.H5O_copy_t = type { i8, i8, i8, i8, i8, i8, i8, ptr, i32, i32, ptr, ptr, i8, ptr, ptr, ptr, ptr, ptr, i64 }
%struct.H5D_copy_file_ud_t = type { %struct.H5O_copy_file_ud_common_t, ptr, ptr }
%struct.H5O_copy_file_ud_common_t = type { ptr }

@H5E_OHDR_g = external global i64, align 8
@.str.4 = private unnamed_addr constant [102 x i8] c"generated/home/dtcxzyw/WorkSpace/Projects/compilers/llvm-opt-benchmark/bench/hdf5/hdf5/src/H5Odtype.c\00", align 1
@H5E_DATATYPE_g = external global i64, align 8
@H5E_BADRANGE_g = external global i64, align 8
@H5E_CANTINIT_g = external global i64, align 8
@.str.74 = private unnamed_addr constant [15 x i8] c"unable to copy\00", align 1
@H5O_dtype_ver_bounds = external constant [6 x i32], align 16
@__func__.H5O__dtype_pre_copy_file = private unnamed_addr constant [25 x i8] c"H5O__dtype_pre_copy_file\00", align 1
@.str.178 = private unnamed_addr constant [39 x i8] c"datatype message version out of bounds\00", align 1
@.str.179 = private unnamed_addr constant [29 x i8] c"cannot mark datatype on disk\00", align 1

; Function Attrs: nounwind uwtable
define internal i32 @H5O__dtype_pre_copy_file(ptr noundef %0, ptr noundef %1, ptr noundef %2, ptr noundef %3, ptr noundef %4) #0 {
  %6 = alloca ptr, align 8
  %7 = alloca ptr, align 8
  %8 = alloca ptr, align 8
  %9 = alloca ptr, align 8
  %10 = alloca ptr, align 8
  %11 = alloca ptr, align 8
  %12 = alloca ptr, align 8
  %13 = alloca i32, align 4
  %14 = alloca i8, align 1
  store ptr %0, ptr %6, align 8
  store ptr %1, ptr %7, align 8
  store ptr %2, ptr %8, align 8
  store ptr %3, ptr %9, align 8
  store ptr %4, ptr %10, align 8
  %15 = load ptr, ptr %7, align 8
  store ptr %15, ptr %11, align 8
  %16 = load ptr, ptr %10, align 8
  store ptr %16, ptr %12, align 8
  store i32 0, ptr %13, align 4
  store i8 0, ptr %14, align 1
  %17 = load ptr, ptr %11, align 8
  %18 = getelementptr inbounds %struct.H5T_t, ptr %17, i32 0, i32 1
  %19 = load ptr, ptr %18, align 8
  %20 = getelementptr inbounds %struct.H5T_shared_t, ptr %19, i32 0, i32 4
  %21 = load i32, ptr %20, align 8
  %22 = load ptr, ptr %9, align 8
  %23 = getelementptr inbounds %struct.H5O_copy_t, ptr %22, i32 0, i32 14
  %24 = load ptr, ptr %23, align 8
  %25 = call i32 @H5F_get_high_bound(ptr noundef %24)
  %26 = sext i32 %25 to i64
  %27 = getelementptr inbounds [6 x i32], ptr @H5O_dtype_ver_bounds, i64 0, i64 %26
  %28 = load i32, ptr %27, align 4
  %29 = icmp ugt i32 %21, %28
  br i1 %29, label %30, label %45

30:                                               ; preds = %5
  br label %31

31:                                               ; preds = %30
  br label %32

32:                                               ; preds = %31
  br label %33

33:                                               ; preds = %32
  %34 = load i64, ptr @H5E_OHDR_g, align 8
  %35 = load i64, ptr @H5E_BADRANGE_g, align 8
  %36 = call i32 (ptr, ptr, i32, i64, i64, ptr, ...) @H5E_printf_stack(ptr noundef @.str.4, ptr noundef @__func__.H5O__dtype_pre_copy_file, i32 noundef 1828, i64 noundef %34, i64 noundef %35, ptr noundef @.str.178)
  br label %37

37:                                               ; preds = %33
  store i8 1, ptr %14, align 1
  %38 = load i8, ptr %14, align 1
  %39 = trunc i8 %38 to i1
  %40 = zext i1 %39 to i8
  store i8 %40, ptr %14, align 1
  br label %41

41:                                               ; preds = %37
  br label %42

42:                                               ; preds = %41
  store i32 -1, ptr %13, align 4
  br label %94

43:                                               ; No predecessors!
  br label %44

44:                                               ; preds = %43
  br label %45

45:                                               ; preds = %44, %5
  %46 = load ptr, ptr %12, align 8
  %47 = icmp ne ptr %46, null
  br i1 %47, label %48, label %93

48:                                               ; preds = %45
  %49 = load ptr, ptr %11, align 8
  %50 = call ptr @H5T_copy(ptr noundef %49, i32 noundef 0)
  %51 = load ptr, ptr %12, align 8
  %52 = getelementptr inbounds %struct.H5D_copy_file_ud_t, ptr %51, i32 0, i32 2
  store ptr %50, ptr %52, align 8
  %53 = icmp eq ptr null, %50
  br i1 %53, label %54, label %69

54:                                               ; preds = %48
  br label %55

55:                                               ; preds = %54
  br label %56

56:                                               ; preds = %55
  br label %57

57:                                               ; preds = %56
  %58 = load i64, ptr @H5E_DATATYPE_g, align 8
  %59 = load i64, ptr @H5E_CANTINIT_g, align 8
  %60 = call i32 (ptr, ptr, i32, i64, i64, ptr, ...) @H5E_printf_stack(ptr noundef @.str.4, ptr noundef @__func__.H5O__dtype_pre_copy_file, i32 noundef 1840, i64 noundef %58, i64 noundef %59, ptr noundef @.str.74)
  br label %61

61:                                               ; preds = %57
  store i8 1, ptr %14, align 1
  %62 = load i8, ptr %14, align 1
  %63 = trunc i8 %62 to i1
  %64 = zext i1 %63 to i8
  store i8 %64, ptr %14, align 1
  br label %65

65:                                               ; preds = %61
  br label %66

66:                                               ; preds = %65
  store i32 -1, ptr %13, align 4
  br label %94

67:                                               ; No predecessors!
  br label %68

68:                                               ; preds = %67
  br label %69

69:                                               ; preds = %68, %48
  %70 = load ptr, ptr %12, align 8
  %71 = getelementptr inbounds %struct.H5D_copy_file_ud_t, ptr %70, i32 0, i32 2
  %72 = load ptr, ptr %71, align 8
  %73 = load ptr, ptr %6, align 8
  %74 = call ptr @H5F_get_vol_obj(ptr noundef %73)
  %75 = call i32 @H5T_set_loc(ptr noundef %72, ptr noundef %74, i32 noundef 2)
  %76 = icmp slt i32 %75, 0
  br i1 %76, label %77, label %92

77:                                               ; preds = %69
  br label %78

78:                                               ; preds = %77
  br label %79

79:                                               ; preds = %78
  br label %80

80:                                               ; preds = %79
  %81 = load i64, ptr @H5E_DATATYPE_g, align 8
  %82 = load i64, ptr @H5E_CANTINIT_g, align 8
  %83 = call i32 (ptr, ptr, i32, i64, i64, ptr, ...) @H5E_printf_stack(ptr noundef @.str.4, ptr noundef @__func__.H5O__dtype_pre_copy_file, i32 noundef 1844, i64 noundef %81, i64 noundef %82, ptr noundef @.str.179)
  br label %84

84:                                               ; preds = %80
  store i8 1, ptr %14, align 1
  %85 = load i8, ptr %14, align 1
  %86 = trunc i8 %85 to i1
  %87 = zext i1 %86 to i8
  store i8 %87, ptr %14, align 1
  br label %88

88:                                               ; preds = %84
  br label %89

89:                                               ; preds = %88
  store i32 -1, ptr %13, align 4
  br label %94

90:                                               ; No predecessors!
  br label %91

91:                                               ; preds = %90
  br label %92

92:                                               ; preds = %91, %69
  br label %93

93:                                               ; preds = %92, %45
  br label %94

94:                                               ; preds = %93, %89, %66, %42
  %95 = load i32, ptr %13, align 4
  ret i32 %95
}