; Function Attrs: nounwind uwtable
define internal range(i32 -1, 1) i32 @H5O__dtype_pre_copy_file(ptr noundef %0, ptr noundef %1, ptr nocapture readnone %2, ptr nocapture noundef readonly %3, ptr noundef writeonly %4) #0 {
  %6 = getelementptr inbounds i8, ptr %1, i64 40
  %7 = load ptr, ptr %6, align 8
  %8 = getelementptr inbounds i8, ptr %7, i64 24
  %9 = load i32, ptr %8, align 8
  %10 = getelementptr inbounds i8, ptr %3, i64 56
  %11 = load ptr, ptr %10, align 8
  %12 = tail call i32 @H5F_get_high_bound(ptr noundef %11) #15
  %13 = sext i32 %12 to i64
  %14 = getelementptr inbounds [6 x i32], ptr @H5O_dtype_ver_bounds, i64 0, i64 %13
  %15 = load i32, ptr %14, align 4
  %16 = icmp ugt i32 %9, %15
  br i1 %16, label %17, label %21

17:                                               ; preds = %5
  %18 = load i64, ptr @H5E_OHDR_g, align 8
  %19 = load i64, ptr @H5E_BADRANGE_g, align 8
  %20 = tail call i32 (ptr, ptr, i32, i64, i64, ptr, ...) @H5E_printf_stack(ptr noundef nonnull @.str.4, ptr noundef nonnull @__func__.H5O__dtype_pre_copy_file, i32 noundef 1828, i64 noundef %18, i64 noundef %19, ptr noundef nonnull @.str.178) #15
  br label %38

21:                                               ; preds = %5
  %.not = icmp eq ptr %4, null
  br i1 %.not, label %38, label %22

22:                                               ; preds = %21
  %23 = tail call ptr @H5T_copy(ptr noundef nonnull %1, i32 noundef 0) #15
  %24 = getelementptr inbounds i8, ptr %4, i64 16
  store ptr %23, ptr %24, align 8
  %25 = icmp eq ptr %23, null
  br i1 %25, label %26, label %30

26:                                               ; preds = %22
  %27 = load i64, ptr @H5E_DATATYPE_g, align 8
  %28 = load i64, ptr @H5E_CANTINIT_g, align 8
  %29 = tail call i32 (ptr, ptr, i32, i64, i64, ptr, ...) @H5E_printf_stack(ptr noundef nonnull @.str.4, ptr noundef nonnull @__func__.H5O__dtype_pre_copy_file, i32 noundef 1840, i64 noundef %27, i64 noundef %28, ptr noundef nonnull @.str.74) #15
  br label %38

30:                                               ; preds = %22
  %31 = tail call ptr @H5F_get_vol_obj(ptr noundef %0) #15
  %32 = tail call i32 @H5T_set_loc(ptr noundef nonnull %23, ptr noundef %31, i32 noundef 2) #15
  %33 = icmp slt i32 %32, 0
  br i1 %33, label %34, label %38

34:                                               ; preds = %30
  %35 = load i64, ptr @H5E_DATATYPE_g, align 8
  %36 = load i64, ptr @H5E_CANTINIT_g, align 8
  %37 = tail call i32 (ptr, ptr, i32, i64, i64, ptr, ...) @H5E_printf_stack(ptr noundef nonnull @.str.4, ptr noundef nonnull @__func__.H5O__dtype_pre_copy_file, i32 noundef 1844, i64 noundef %35, i64 noundef %36, ptr noundef nonnull @.str.179) #15
  br label %38

38:                                               ; preds = %21, %30, %34, %26, %17
  %.0 = phi i32 [ -1, %17 ], [ -1, %26 ], [ -1, %34 ], [ 0, %30 ], [ 0, %21 ]
  ret i32 %.0
}